; Function Attrs: nounwind uwtable
define dso_local void @PageSetChecksumInplace(ptr noundef %0, i32 noundef %1) local_unnamed_addr #3 {
  %3 = getelementptr i8, ptr %0, i64 14
  %.val = load i16, ptr %3, align 2
  %4 = icmp eq i16 %.val, 0
  br i1 %4, label %10, label %5

5:                                                ; preds = %2
  %6 = tail call zeroext i1 @DataChecksumsEnabled() #12
  br i1 %6, label %7, label %10

7:                                                ; preds = %5
  %8 = tail call zeroext i16 @pg_checksum_page(ptr noundef nonnull %0, i32 noundef %1) #12
  %9 = getelementptr inbounds nuw i8, ptr %0, i64 8
  store i16 %8, ptr %9, align 4
  br label %10

10:                                               ; preds = %2, %5, %7
  ret void
}